(dp0
S'seven'
p1
(dp2
S'Shrikant'
p3
(lp4
I52
aI64
aI47
aI59
asS'Prarthana'
p5
(lp6
I57
aI58
aI62
aI65
asS'Kamini'
p7
(lp8
I68
aI66
aI74
aI72
asS'Vedhas'
p9
(lp10
I57
aI57
aI52
aI57
asS'Hitesh'
p11
(lp12
I50
aI57
aI43
aI58
asS'Pragya'
p13
(lp14
I61
aI65
aI65
aI65
asS'Reshma'
p15
(lp16
I58
aI58
aI54
aI58
asS'Mayur'
p17
(lp18
I48
aI57
aI47
aI53
asS'Shradha'
p19
(lp20
I62
aI60
aI66
aI66
asS'Richa'
p21
(lp22
I63
aI60
aI60
aI61
asS'Ankita'
p23
(lp24
I65
aI66
aI60
aI63
asS'divyansh'
p25
(lp26
I57
aI59
aI57
aI59
asS'Mansi'
p27
(lp28
I73
aI69
aI63
aI70
asS'Niramay'
p29
(lp30
I58
aI56
aI60
aI58
asS'Jatin'
p31
(lp32
I47
aI46
aI47
aI49
asS'Kaustuv'
p33
(lp34
I56
aI54
aI54
aI52
assS'nine'
p35
(dp36
g3
(lp37
I61
aI75
aI53
aI62
asg5
(lp38
I54
aI61
aI55
aI58
asg7
(lp39
I74
aI76
aI75
aI83
asg9
(lp40
I53
aI65
aI59
aI66
asg11
(lp41
I53
aI61
aI48
aI64
asg13
(lp42
I64
aI65
aI69
aI69
asg15
(lp43
I53
aI62
aI52
aI56
asg17
(lp44
I47
aI62
aI46
aI53
asg19
(lp45
I59
aI62
aI63
aI71
asg21
(lp46
I60
aI64
aI65
aI73
asg23
(lp47
I56
aI63
aI57
aI62
asg25
(lp48
I54
aI53
aI56
aI56
asg27
(lp49
I69
aI75
aI61
aI74
asg29
(lp50
I62
aI64
aI67
aI70
asg31
(lp51
I37
aI47
aI37
aI43
asg33
(lp52
I59
aI58
aI58
aI57
assS'six'
p53
(dp54
g3
(lp55
I31
aI36
aI30
aI33
asg5
(lp56
I38
aI38
aI37
aI33
asg7
(lp57
I33
aI35
aI36
aI37
asg9
(lp58
I33
aI38
aI31
aI32
asg11
(lp59
I32
aI31
aI38
aI37
asg13
(lp60
I36
aI37
aI35
aI37
asg15
(lp61
I38
aI37
aI33
aI34
asg17
(lp62
I30
aI29
aI32
aI29
asg19
(lp63
I27
aI25
aI31
aI30
asg21
(lp64
I33
aI33
aI31
aI32
asg23
(lp65
I38
aI38
aI38
aI37
asg25
(lp66
I40
aI39
aI38
aI40
asg27
(lp67
I41
aI36
aI34
aI36
asg29
(lp68
I42
aI38
aI36
aI37
asg31
(lp69
I36
aI35
aI40
aI38
asg33
(lp70
I32
aI30
aI32
aI32
assS'three'
p71
(dp72
g3
(lp73
I47
aI55
aI39
aI50
asg5
(lp74
I52
aI51
aI49
aI52
asg7
(lp75
I51
aI47
aI50
aI49
asg9
(lp76
I48
aI54
aI53
aI55
asg11
(lp77
I30
aI40
aI45
aI47
asg13
(lp78
I48
aI49
aI47
aI49
asg15
(lp79
I47
aI50
aI47
aI49
asg17
(lp80
I44
aI55
aI42
aI56
asg19
(lp81
I54
aI57
aI51
aI50
asg21
(lp82
I54
aI55
aI57
aI54
asg23
(lp83
I49
aI48
aI51
aI50
asg25
(lp84
I50
aI47
aI45
aI45
asg27
(lp85
I60
aI56
aI58
aI57
asg29
(lp86
I51
aI50
aI51
aI57
asg31
(lp87
I43
aI44
aI47
aI47
asg33
(lp88
I43
aI43
aI44
aI44
assS'two'
p89
(dp90
g3
(lp91
I50
aI57
aI43
aI55
asg5
(lp92
I51
aI54
aI52
aI52
asg7
(lp93
I53
aI53
aI55
aI53
asg9
(lp94
I50
aI52
aI49
aI49
asg11
(lp95
I35
aI49
aI45
aI49
asg13
(lp96
I51
aI51
aI51
aI52
asg15
(lp97
I54
aI52
aI52
aI52
asg17
(lp98
I46
aI56
aI49
aI55
asg19
(lp99
I56
aI54
aI54
aI57
asg21
(lp100
I55
aI55
aI56
aI57
asg23
(lp101
I50
aI53
aI53
aI51
asg25
(lp102
I53
aI51
aI49
aI51
asg27
(lp103
I62
aI57
aI58
aI66
asg29
(lp104
I49
aI49
aI56
aI54
asg31
(lp105
I49
aI50
aI51
aI51
asg33
(lp106
I46
aI45
aI46
aI46
assS'four'
p107
(dp108
g3
(lp109
I54
aI59
aI47
aI55
asg5
(lp110
I53
aI53
aI50
aI53
asg7
(lp111
I56
aI54
aI57
aI54
asg9
(lp112
I52
aI54
aI48
aI54
asg11
(lp113
I37
aI44
aI48
aI52
asg13
(lp114
I52
aI54
aI51
aI52
asg15
(lp115
I52
aI51
aI56
aI52
asg17
(lp116
I51
aI58
aI51
aI55
asg19
(lp117
I58
aI61
aI54
aI59
asg21
(lp118
I57
aI57
aI58
aI60
asg23
(lp119
I51
aI54
aI51
aI51
asg25
(lp120
I50
aI51
aI51
aI51
asg27
(lp121
I64
aI65
aI65
aI64
asg29
(lp122
I54
aI52
aI52
aI55
asg31
(lp123
I53
aI51
aI52
aI51
asg33
(lp124
I49
aI52
aI54
aI54
assS'zero'
p125
(dp126
g3
(lp127
I60
aI65
aI56
aI67
asg5
(lp128
I65
aI63
aI61
aI58
asg7
(lp129
I73
aI79
aI75
aI78
asg9
(lp130
I60
aI57
aI53
aI66
asg11
(lp131
I58
aI66
aI45
aI56
asg13
(lp132
I57
aI59
aI60
aI70
asg15
(lp133
I55
aI51
aI58
aI53
asg17
(lp134
I67
aI64
aI57
aI70
asg19
(lp135
I65
aI75
aI74
aI82
asg21
(lp136
I58
aI63
aI60
aI67
asg23
(lp137
I62
aI69
aI58
aI64
asg25
(lp138
I63
aI65
aI56
aI59
asg27
(lp139
I65
aI65
aI63
aI51
asg29
(lp140
I59
aI57
aI63
aI63
asg31
(lp141
I49
aI54
aI54
aI52
asg33
(lp142
I59
aI59
aI56
aI47
assS'five'
p143
(dp144
g3
(lp145
I47
aI57
aI41
aI48
asg5
(lp146
I51
aI53
aI51
aI53
asg7
(lp147
I49
aI51
aI54
aI54
asg9
(lp148
I46
aI52
aI48
aI56
asg11
(lp149
I44
aI51
aI49
aI51
asg13
(lp150
I50
aI52
aI50
aI50
asg15
(lp151
I52
aI50
aI52
aI49
asg17
(lp152
I47
aI52
aI47
aI53
asg19
(lp153
I56
aI58
aI65
aI65
asg21
(lp154
I57
aI57
aI58
aI62
asg23
(lp155
I48
aI51
aI51
aI50
asg25
(lp156
I54
aI55
aI51
aI51
asg27
(lp157
I64
aI60
aI61
aI66
asg29
(lp158
I49
aI52
aI48
aI50
asg31
(lp159
I47
aI48
aI51
aI49
asg33
(lp160
I50
aI52
aI59
aI56
assS'eight'
p161
(dp162
g3
(lp163
I39
aI47
aI38
aI42
asg5
(lp164
I57
aI56
aI47
aI56
asg7
(lp165
I47
aI47
aI52
aI51
asg9
(lp166
I41
aI44
aI42
aI44
asg11
(lp167
I43
aI42
aI45
aI55
asg13
(lp168
I50
aI50
aI49
aI49
asg15
(lp169
I49
aI47
aI48
aI44
asg17
(lp170
I59
aI59
aI39
aI61
asg19
(lp171
I42
aI43
aI48
aI45
asg21
(lp172
I50
aI47
aI49
aI48
asg23
(lp173
I48
aI48
aI45
aI46
asg25
(lp174
I44
aI44
aI44
aI44
asg27
(lp175
I52
aI54
aI46
aI48
asg29
(lp176
I45
aI43
aI42
aI41
asg31
(lp177
I46
aI46
aI51
aI45
asg33
(lp178
I44
aI43
aI44
aI45
assS'one'
p179
(dp180
g3
(lp181
I50
aI61
aI46
aI59
asg5
(lp182
I54
aI53
aI48
aI51
asg7
(lp183
I58
aI60
aI64
aI63
asg9
(lp184
I54
aI56
aI57
aI60
asg11
(lp185
I42
aI55
aI44
aI49
asg13
(lp186
I60
aI57
aI59
aI58
asg15
(lp187
I51
aI50
aI50
aI46
asg17
(lp188
I50
aI55
aI46
aI56
asg19
(lp189
I61
aI56
aI58
aI62
asg21
(lp190
I56
aI55
aI58
aI56
asg23
(lp191
I57
aI53
aI57
aI58
asg25
(lp192
I53
aI53
aI55
aI55
asg27
(lp193
I59
aI59
aI64
aI65
asg29
(lp194
I53
aI51
aI65
aI67
asg31
(lp195
I37
aI38
aI44
aI41
asg33
(lp196
I48
aI49
aI52
aI49
ass.